#include <math.h>
#include <stdio.h>
#include <stdlib.h>
#include <string.h>

int main(int argc, char* argv[])
{
	char a[101],t[101];
	char b[101];
	char c[101];
	gets(a);
	gets(b);
	gets(c);
	int found=0,i,j;
	memset(t,'\0',sizeof(t));
	for(i=0,j=0;a[i-1]!='\0';i++,j++)
	{ 		
		if(a[i]!=' '&&a[i]!='\0')
		{
			t[j]=a[i];
		}
		if(a[i]==' '||a[i]=='\0')
		{
			t[j+1]='\0';
			if(strcmp(t,b)==0)
			{
				strcpy(t,c);
			}
			if(found++)
			{
				printf(" ");
			}
				printf("%s",t);
				j=-1;
			memset(t,'\0',sizeof(t));
		}
		
	}	
	return 0;
}
