; ModuleID = '19/257.c'
source_filename = "19/257.c"
target datalayout = "e-m:e-p270:32:32-p271:32:32-p272:64:64-i64:64-f80:128-n8:16:32:64-S128"
target triple = "x86_64-pc-linux-gnu"

@.str = private unnamed_addr constant [2 x i8] c" \00", align 1
@.str.1 = private unnamed_addr constant [3 x i8] c"%s\00", align 1

; Function Attrs: noinline nounwind uwtable
define dso_local i32 @main(i32 %0, i8** %1) #0 {
  %3 = alloca i32, align 4
  %4 = alloca i32, align 4
  %5 = alloca i8**, align 8
  %6 = alloca [101 x i8], align 16
  %7 = alloca [101 x i8], align 16
  %8 = alloca [101 x i8], align 16
  %9 = alloca [101 x i8], align 16
  %10 = alloca i32, align 4
  %11 = alloca i32, align 4
  %12 = alloca i32, align 4
  store i32 0, i32* %3, align 4
  store i32 %0, i32* %4, align 4
  store i8** %1, i8*** %5, align 8
  %13 = getelementptr inbounds [101 x i8], [101 x i8]* %6, i64 0, i64 0
  %14 = call i32 (i8*, ...) bitcast (i32 (...)* @gets to i32 (i8*, ...)*)(i8* %13)
  %15 = getelementptr inbounds [101 x i8], [101 x i8]* %8, i64 0, i64 0
  %16 = call i32 (i8*, ...) bitcast (i32 (...)* @gets to i32 (i8*, ...)*)(i8* %15)
  %17 = getelementptr inbounds [101 x i8], [101 x i8]* %9, i64 0, i64 0
  %18 = call i32 (i8*, ...) bitcast (i32 (...)* @gets to i32 (i8*, ...)*)(i8* %17)
  store i32 0, i32* %10, align 4
  %19 = getelementptr inbounds [101 x i8], [101 x i8]* %7, i64 0, i64 0
  call void @llvm.memset.p0i8.i64(i8* align 16 %19, i8 0, i64 101, i1 false)
  store i32 0, i32* %11, align 4
  store i32 0, i32* %12, align 4
  br label %20

20:                                               ; preds = %88, %2
  %21 = load i32, i32* %11, align 4
  %22 = sub nsw i32 %21, 1
  %23 = sext i32 %22 to i64
  %24 = getelementptr inbounds [101 x i8], [101 x i8]* %6, i64 0, i64 %23
  %25 = load i8, i8* %24, align 1
  %26 = sext i8 %25 to i32
  %27 = icmp ne i32 %26, 0
  br i1 %27, label %28, label %93

28:                                               ; preds = %20
  %29 = load i32, i32* %11, align 4
  %30 = sext i32 %29 to i64
  %31 = getelementptr inbounds [101 x i8], [101 x i8]* %6, i64 0, i64 %30
  %32 = load i8, i8* %31, align 1
  %33 = sext i8 %32 to i32
  %34 = icmp ne i32 %33, 32
  br i1 %34, label %35, label %50

35:                                               ; preds = %28
  %36 = load i32, i32* %11, align 4
  %37 = sext i32 %36 to i64
  %38 = getelementptr inbounds [101 x i8], [101 x i8]* %6, i64 0, i64 %37
  %39 = load i8, i8* %38, align 1
  %40 = sext i8 %39 to i32
  %41 = icmp ne i32 %40, 0
  br i1 %41, label %42, label %50

42:                                               ; preds = %35
  %43 = load i32, i32* %11, align 4
  %44 = sext i32 %43 to i64
  %45 = getelementptr inbounds [101 x i8], [101 x i8]* %6, i64 0, i64 %44
  %46 = load i8, i8* %45, align 1
  %47 = load i32, i32* %12, align 4
  %48 = sext i32 %47 to i64
  %49 = getelementptr inbounds [101 x i8], [101 x i8]* %7, i64 0, i64 %48
  store i8 %46, i8* %49, align 1
  br label %50

50:                                               ; preds = %42, %35, %28
  %51 = load i32, i32* %11, align 4
  %52 = sext i32 %51 to i64
  %53 = getelementptr inbounds [101 x i8], [101 x i8]* %6, i64 0, i64 %52
  %54 = load i8, i8* %53, align 1
  %55 = sext i8 %54 to i32
  %56 = icmp eq i32 %55, 32
  br i1 %56, label %64, label %57

57:                                               ; preds = %50
  %58 = load i32, i32* %11, align 4
  %59 = sext i32 %58 to i64
  %60 = getelementptr inbounds [101 x i8], [101 x i8]* %6, i64 0, i64 %59
  %61 = load i8, i8* %60, align 1
  %62 = sext i8 %61 to i32
  %63 = icmp eq i32 %62, 0
  br i1 %63, label %64, label %87

64:                                               ; preds = %57, %50
  %65 = load i32, i32* %12, align 4
  %66 = add nsw i32 %65, 1
  %67 = sext i32 %66 to i64
  %68 = getelementptr inbounds [101 x i8], [101 x i8]* %7, i64 0, i64 %67
  store i8 0, i8* %68, align 1
  %69 = getelementptr inbounds [101 x i8], [101 x i8]* %7, i64 0, i64 0
  %70 = getelementptr inbounds [101 x i8], [101 x i8]* %8, i64 0, i64 0
  %71 = call i32 @strcmp(i8* %69, i8* %70) #5
  %72 = icmp eq i32 %71, 0
  br i1 %72, label %73, label %77

73:                                               ; preds = %64
  %74 = getelementptr inbounds [101 x i8], [101 x i8]* %7, i64 0, i64 0
  %75 = getelementptr inbounds [101 x i8], [101 x i8]* %9, i64 0, i64 0
  %76 = call i8* @strcpy(i8* %74, i8* %75) #6
  br label %77

77:                                               ; preds = %73, %64
  %78 = load i32, i32* %10, align 4
  %79 = add nsw i32 %78, 1
  store i32 %79, i32* %10, align 4
  %80 = icmp ne i32 %78, 0
  br i1 %80, label %81, label %83

81:                                               ; preds = %77
  %82 = call i32 (i8*, ...) @printf(i8* getelementptr inbounds ([2 x i8], [2 x i8]* @.str, i64 0, i64 0))
  br label %83

83:                                               ; preds = %81, %77
  %84 = getelementptr inbounds [101 x i8], [101 x i8]* %7, i64 0, i64 0
  %85 = call i32 (i8*, ...) @printf(i8* getelementptr inbounds ([3 x i8], [3 x i8]* @.str.1, i64 0, i64 0), i8* %84)
  store i32 -1, i32* %12, align 4
  %86 = getelementptr inbounds [101 x i8], [101 x i8]* %7, i64 0, i64 0
  call void @llvm.memset.p0i8.i64(i8* align 16 %86, i8 0, i64 101, i1 false)
  br label %87

87:                                               ; preds = %83, %57
  br label %88

88:                                               ; preds = %87
  %89 = load i32, i32* %11, align 4
  %90 = add nsw i32 %89, 1
  store i32 %90, i32* %11, align 4
  %91 = load i32, i32* %12, align 4
  %92 = add nsw i32 %91, 1
  store i32 %92, i32* %12, align 4
  br label %20

93:                                               ; preds = %20
  ret i32 0
}

declare dso_local i32 @gets(...) #1

; Function Attrs: argmemonly nounwind willreturn
declare void @llvm.memset.p0i8.i64(i8* nocapture writeonly, i8, i64, i1 immarg) #2

; Function Attrs: nounwind readonly
declare dso_local i32 @strcmp(i8*, i8*) #3

; Function Attrs: nounwind
declare dso_local i8* @strcpy(i8*, i8*) #4

declare dso_local i32 @printf(i8*, ...) #1


!llvm.module.flags = !{!0}
!llvm.ident = !{!1}

!0 = !{i32 1, !"wchar_size", i32 4}
!1 = !{!"clang version 10.0.0-4ubuntu1 "}
