; ModuleID = 'source-C-CXX/18/257.c'
source_filename = "source-C-CXX/18/257.c"
target datalayout = "e-m:e-p270:32:32-p271:32:32-p272:64:64-i64:64-f80:128-n8:16:32:64-S128"
target triple = "x86_64-pc-linux-gnu"

@.str.1 = private unnamed_addr constant [3 x i8] c"%s\00", align 1

; Function Attrs: nounwind sspstrong uwtable
define dso_local i32 @main(i32 %0, i8** nocapture readnone %1) local_unnamed_addr #0 {
  %3 = alloca [101 x i8], align 16
  %4 = alloca [101 x i8], align 16
  %5 = alloca [101 x i8], align 16
  %6 = alloca [101 x i8], align 16
  %7 = getelementptr inbounds [101 x i8], [101 x i8]* %3, i64 0, i64 0
  call void @llvm.lifetime.start.p0i8(i64 101, i8* nonnull %7) #8
  %8 = getelementptr inbounds [101 x i8], [101 x i8]* %4, i64 0, i64 0
  call void @llvm.lifetime.start.p0i8(i64 101, i8* nonnull %8) #8
  %9 = getelementptr inbounds [101 x i8], [101 x i8]* %5, i64 0, i64 0
  call void @llvm.lifetime.start.p0i8(i64 101, i8* nonnull %9) #8
  %10 = getelementptr inbounds [101 x i8], [101 x i8]* %6, i64 0, i64 0
  call void @llvm.lifetime.start.p0i8(i64 101, i8* nonnull %10) #8
  %11 = call i32 (i8*, ...) bitcast (i32 (...)* @gets to i32 (i8*, ...)*)(i8* nonnull %7) #8
  %12 = call i32 (i8*, ...) bitcast (i32 (...)* @gets to i32 (i8*, ...)*)(i8* nonnull %9) #8
  %13 = call i32 (i8*, ...) bitcast (i32 (...)* @gets to i32 (i8*, ...)*)(i8* nonnull %10) #8
  call void @llvm.memset.p0i8.i64(i8* noundef nonnull align 16 dereferenceable(101) %8, i8 0, i64 101, i1 false)
  %14 = getelementptr inbounds [101 x i8], [101 x i8]* %3, i64 0, i64 -1
  %15 = load i8, i8* %14, align 1, !tbaa !5
  %16 = icmp eq i8 %15, 0
  br i1 %16, label %49, label %17

17:                                               ; preds = %2, %42
  %18 = phi i64 [ %46, %42 ], [ 0, %2 ]
  %19 = phi i32 [ %47, %42 ], [ 0, %2 ]
  %20 = phi i32 [ %44, %42 ], [ 0, %2 ]
  %21 = getelementptr inbounds [101 x i8], [101 x i8]* %3, i64 0, i64 %18
  %22 = load i8, i8* %21, align 1, !tbaa !5
  switch i8 %22, label %23 [
    i8 32, label %26
    i8 0, label %26
  ]

23:                                               ; preds = %17
  %24 = sext i32 %19 to i64
  %25 = getelementptr inbounds [101 x i8], [101 x i8]* %4, i64 0, i64 %24
  store i8 %22, i8* %25, align 1, !tbaa !5
  br label %42

26:                                               ; preds = %17, %17
  %27 = add nsw i32 %19, 1
  %28 = sext i32 %27 to i64
  %29 = getelementptr inbounds [101 x i8], [101 x i8]* %4, i64 0, i64 %28
  store i8 0, i8* %29, align 1, !tbaa !5
  %30 = call i32 @strcmp(i8* noundef nonnull %8, i8* noundef nonnull %9) #9
  %31 = icmp eq i32 %30, 0
  br i1 %31, label %32, label %34

32:                                               ; preds = %26
  %33 = call i8* @strcpy(i8* noundef nonnull %8, i8* noundef nonnull %10) #8
  br label %34

34:                                               ; preds = %32, %26
  %35 = add nsw i32 %20, 1
  %36 = icmp eq i32 %20, 0
  br i1 %36, label %39, label %37

37:                                               ; preds = %34
  %38 = call i32 @putchar(i32 32)
  br label %39

39:                                               ; preds = %37, %34
  %40 = call i32 (i8*, ...) @printf(i8* nonnull dereferenceable(1) getelementptr inbounds ([3 x i8], [3 x i8]* @.str.1, i64 0, i64 0), i8* nonnull %8)
  call void @llvm.memset.p0i8.i64(i8* noundef nonnull align 16 dereferenceable(101) %8, i8 0, i64 101, i1 false)
  %41 = load i8, i8* %21, align 1, !tbaa !5
  br label %42

42:                                               ; preds = %23, %39
  %43 = phi i8 [ %41, %39 ], [ %22, %23 ]
  %44 = phi i32 [ %35, %39 ], [ %20, %23 ]
  %45 = phi i32 [ -1, %39 ], [ %19, %23 ]
  %46 = add nuw i64 %18, 1
  %47 = add nsw i32 %45, 1
  %48 = icmp eq i8 %43, 0
  br i1 %48, label %49, label %17, !llvm.loop !8

49:                                               ; preds = %42, %2
  call void @llvm.lifetime.end.p0i8(i64 101, i8* nonnull %10) #8
  call void @llvm.lifetime.end.p0i8(i64 101, i8* nonnull %9) #8
  call void @llvm.lifetime.end.p0i8(i64 101, i8* nonnull %8) #8
  call void @llvm.lifetime.end.p0i8(i64 101, i8* nonnull %7) #8
  ret i32 0
}

; Function Attrs: argmemonly mustprogress nofree nosync nounwind willreturn
declare void @llvm.lifetime.start.p0i8(i64 immarg, i8* nocapture) #1

declare i32 @gets(...) local_unnamed_addr #2

; Function Attrs: argmemonly mustprogress nofree nounwind willreturn writeonly
declare void @llvm.memset.p0i8.i64(i8* nocapture writeonly, i8, i64, i1 immarg) #3

; Function Attrs: argmemonly mustprogress nofree nounwind readonly willreturn
declare i32 @strcmp(i8* nocapture, i8* nocapture) local_unnamed_addr #4

; Function Attrs: argmemonly mustprogress nofree nounwind willreturn
declare i8* @strcpy(i8* noalias returned writeonly, i8* noalias nocapture readonly) local_unnamed_addr #5

; Function Attrs: nofree nounwind
declare noundef i32 @printf(i8* nocapture noundef readonly, ...) local_unnamed_addr #6

; Function Attrs: argmemonly mustprogress nofree nosync nounwind willreturn
declare void @llvm.lifetime.end.p0i8(i64 immarg, i8* nocapture) #1

; Function Attrs: nofree nounwind
declare noundef i32 @putchar(i32 noundef) local_unnamed_addr #7


!llvm.module.flags = !{!0, !1, !2, !3}
!llvm.ident = !{!4}

!0 = !{i32 1, !"wchar_size", i32 4}
!1 = !{i32 7, !"PIC Level", i32 2}
!2 = !{i32 7, !"PIE Level", i32 2}
!3 = !{i32 7, !"uwtable", i32 1}
!4 = !{!"clang version 13.0.0"}
!5 = !{!6, !6, i64 0}
!6 = !{!"omnipotent char", !7, i64 0}
!7 = !{!"Simple C/C++ TBAA"}
!8 = distinct !{!8, !9}
!9 = !{!"llvm.loop.mustprogress"}
